(dp0
S'Plot'
p1
(lp2
S'Voltage'
p3
aS'Torque'
p4
aS'Flux Linkage'
p5
aS'Current'
p6
asS'Values'
p7
(lp8
S'Ld/Lq'
p9
aS'Psi_d/Psi_q'
p10
aS'Voltage'
p11
aS'Torque'
p12
aS'Angel - Up/U'
p13
asS'Fast'
p14
(lp15
S'Ld-Lq Identification'
p16
aS'Psid-Psiq Identification'
p17
asS'Field'
p18
(lp19
S'B - Induction [T]'
p20
aS'Vektor Potential'
p21
aS'H - Field Strength [kA/m]'
p22
aS'Current in Windings'
p23
as.