(dp0
S'Plot'
p1
(lp2
S'Voltage'
p3
aS'Torque'
p4
aS'Flux Linkage'
p5
aS'Current'
p6
asS'Values'
p7
(lp8
S'Ld/Lq'
p9
aS'Psi_d/Psi_q'
p10
aS'Voltage'
p11
aS'Torque'
p12
aS'Angel - Up/U'
p13
asS'Field'
p14
(lp15
S'B - Induction [T]'
p16
aS'Vektor Potential'
p17
aS'H - Field Strength [kA/m]'
p18
aS'Current in Windings'
p19
as.